target datalayout = "e-m:e-p270:32:32-p271:32:32-p272:64:64-i64:64-i128:128-f80:128-n8:16:32:64-S128"
target triple = "x86_64-pc-linux-gnu"

%struct.AVBPrint = type { ptr, i32, i32, i32, [1 x i8], [1000 x i8] }

@.str.15 = private unnamed_addr constant [4 x i8] c"%s=\00", align 1
@.str.16 = private unnamed_addr constant [4 x i8] c"%s\0A\00", align 1

; Function Attrs: nounwind uwtable
define internal void @ini_print_str(ptr noundef %0, ptr noundef %1, ptr noundef %2) #0 {
  %4 = alloca ptr, align 8
  %5 = alloca ptr, align 8
  %6 = alloca ptr, align 8
  %7 = alloca %struct.AVBPrint, align 8
  store ptr %0, ptr %4, align 8, !tbaa !4
  store ptr %1, ptr %5, align 8, !tbaa !36
  store ptr %2, ptr %6, align 8, !tbaa !36
  call void @llvm.lifetime.start.p0(i64 1024, ptr %7) #5
  call void @av_bprint_init(ptr noundef %7, i32 noundef 1, i32 noundef -1)
  %8 = load ptr, ptr %4, align 8, !tbaa !4
  %9 = load ptr, ptr %5, align 8, !tbaa !36
  %10 = call ptr @ini_escape_str(ptr noundef %7, ptr noundef %9)
  call void (ptr, ptr, ...) @writer_printf(ptr noundef %8, ptr noundef @.str.15, ptr noundef %10)
  call void @av_bprint_clear(ptr noundef %7)
  %11 = load ptr, ptr %4, align 8, !tbaa !4
  %12 = load ptr, ptr %6, align 8, !tbaa !36
  %13 = call ptr @ini_escape_str(ptr noundef %7, ptr noundef %12)
  call void (ptr, ptr, ...) @writer_printf(ptr noundef %11, ptr noundef @.str.16, ptr noundef %13)
  %14 = call i32 @av_bprint_finalize(ptr noundef %7, ptr noundef null)
  call void @llvm.lifetime.end.p0(i64 1024, ptr %7) #5
  ret void
}