; Function Attrs: nounwind uwtable
define internal void @ini_print_str(ptr noundef readonly captures(none) %0, ptr noundef readonly captures(none) %1, ptr noundef readonly captures(none) %2) #0 {
  %4 = alloca %struct.AVBPrint, align 8
  call void @llvm.lifetime.start.p0(i64 1024, ptr nonnull %4) #5
  call void @av_bprint_init(ptr noundef nonnull %4, i32 noundef 1, i32 noundef -1) #5
  %5 = call fastcc ptr @ini_escape_str(ptr noundef %4, ptr noundef %1)
  call void (ptr, ptr, ...) @writer_printf(ptr noundef %0, ptr noundef nonnull @.str.15, ptr noundef %5)
  call void @av_bprint_clear(ptr noundef nonnull %4) #5
  %6 = call fastcc ptr @ini_escape_str(ptr noundef %4, ptr noundef %2)
  call void (ptr, ptr, ...) @writer_printf(ptr noundef %0, ptr noundef nonnull @.str.16, ptr noundef %6)
  %7 = call i32 @av_bprint_finalize(ptr noundef nonnull %4, ptr noundef null) #5
  call void @llvm.lifetime.end.p0(i64 1024, ptr nonnull %4) #5
  ret void
}